target datalayout = "e-m:e-p270:32:32-p271:32:32-p272:64:64-i64:64-i128:128-f80:128-n8:16:32:64-S128"
target triple = "x86_64-pc-linux-gnu"

%class.TableStatistics = type { i64, i64, i64, i64, float, float, float, i64, i64, i64, i64, i64, float, float }
%class.ConcurrentHashTable = type { ptr, ptr, ptr, ptr, i64, i64, i64, i8, ptr, ptr, ptr }
%struct.SizeFunc = type { i8 }

@_ZL12_local_table = internal global ptr null, align 8
@_ZZN11SymbolTable20get_table_statisticsEvE2ts = internal global %class.TableStatistics zeroinitializer, align 8
@_ZGVZN11SymbolTable20get_table_statisticsEvE2ts = internal global i64 0, align 8
@__dso_handle = external hidden global i8
@_ZN6Thread12_thr_currentE = external thread_local global ptr, align 8

; Function Attrs: mustprogress nounwind uwtable
define linkonce_odr hidden void @_ZN19ConcurrentHashTableI17SymbolTableConfigL8MEMFLAGS11EE18unlock_resize_lockEP6Thread(ptr noundef nonnull align 8 dereferenceable(88) %0, ptr noundef %1) #1 comdat align 2 {
  %3 = alloca ptr, align 8
  %4 = alloca ptr, align 8
  store ptr %0, ptr %3, align 8
  store ptr %1, ptr %4, align 8
  %5 = load ptr, ptr %3, align 8
  %6 = getelementptr inbounds %class.ConcurrentHashTable, ptr %5, i32 0, i32 10
  store ptr null, ptr %6, align 8
  %7 = getelementptr inbounds %class.ConcurrentHashTable, ptr %5, i32 0, i32 9
  store ptr null, ptr %7, align 8
  %8 = getelementptr inbounds %class.ConcurrentHashTable, ptr %5, i32 0, i32 8
  %9 = load ptr, ptr %8, align 8
  call void @_ZN5Mutex6unlockEv(ptr noundef nonnull align 8 dereferenceable(104) %9)
  ret void
}

; Function Attrs: mustprogress nounwind uwtable
define linkonce_odr hidden noundef zeroext i1 @_ZN19ConcurrentHashTableI17SymbolTableConfigL8MEMFLAGS11EE15try_resize_lockEP6Thread(ptr noundef nonnull align 8 dereferenceable(88) %0, ptr noundef %1) #1 comdat align 2 {
  %3 = alloca i1, align 1
  %4 = alloca ptr, align 8
  %5 = alloca ptr, align 8
  store ptr %0, ptr %4, align 8
  store ptr %1, ptr %5, align 8
  %6 = load ptr, ptr %4, align 8
  %7 = getelementptr inbounds %class.ConcurrentHashTable, ptr %6, i32 0, i32 8
  %8 = load ptr, ptr %7, align 8
  %9 = call noundef zeroext i1 @_ZN5Mutex8try_lockEv(ptr noundef nonnull align 8 dereferenceable(104) %8)
  br i1 %9, label %10, label %18

10:                                               ; preds = %2
  %11 = getelementptr inbounds %class.ConcurrentHashTable, ptr %6, i32 0, i32 9
  %12 = load ptr, ptr %11, align 8
  %13 = icmp ne ptr %12, null
  br i1 %13, label %14, label %17

14:                                               ; preds = %10
  %15 = getelementptr inbounds %class.ConcurrentHashTable, ptr %6, i32 0, i32 8
  %16 = load ptr, ptr %15, align 8
  call void @_ZN5Mutex6unlockEv(ptr noundef nonnull align 8 dereferenceable(104) %16)
  store i1 false, ptr %3, align 1
  br label %23

17:                                               ; preds = %10
  br label %19

18:                                               ; preds = %2
  store i1 false, ptr %3, align 1
  br label %23

19:                                               ; preds = %17
  %20 = getelementptr inbounds %class.ConcurrentHashTable, ptr %6, i32 0, i32 10
  store ptr null, ptr %20, align 8
  %21 = load ptr, ptr %5, align 8
  %22 = getelementptr inbounds %class.ConcurrentHashTable, ptr %6, i32 0, i32 9
  store ptr %21, ptr %22, align 8
  store i1 true, ptr %3, align 1
  br label %23

23:                                               ; preds = %19, %18, %14
  %24 = load i1, ptr %3, align 1
  ret i1 %24
}

; Function Attrs: mustprogress nounwind uwtable
define linkonce_odr hidden noundef ptr @_ZN6Thread15current_or_nullEv() #1 comdat align 2 {
  %1 = call align 8 ptr @llvm.threadlocal.address.p0(ptr align 8 @_ZN6Thread12_thr_currentE)
  %2 = load ptr, ptr %1, align 8
  ret ptr %2
}

; Function Attrs: mustprogress nounwind uwtable
define linkonce_odr hidden void @_ZN19ConcurrentHashTableI17SymbolTableConfigL8MEMFLAGS11EE14statistics_getI8SizeFuncEE15TableStatisticsP6ThreadRT_S5_(ptr dead_on_unwind noalias writable sret(%class.TableStatistics) align 8 %0, ptr noundef nonnull align 8 dereferenceable(88) %1, ptr noundef %2, ptr noundef nonnull align 1 dereferenceable(1) %3, ptr noundef %4) #1 comdat align 2 {
  %6 = alloca ptr, align 8
  %7 = alloca ptr, align 8
  %8 = alloca ptr, align 8
  %9 = alloca ptr, align 8
  %10 = alloca ptr, align 8
  %11 = alloca i1, align 1
  store ptr %0, ptr %6, align 8
  store ptr %1, ptr %7, align 8
  store ptr %2, ptr %8, align 8
  store ptr %3, ptr %9, align 8
  store ptr %4, ptr %10, align 8
  %12 = load ptr, ptr %7, align 8
  %13 = load ptr, ptr %8, align 8
  %14 = call noundef zeroext i1 @_ZN19ConcurrentHashTableI17SymbolTableConfigL8MEMFLAGS11EE15try_resize_lockEP6Thread(ptr noundef nonnull align 8 dereferenceable(88) %12, ptr noundef %13)
  br i1 %14, label %16, label %15

15:                                               ; preds = %5
  call void @llvm.memcpy.p0.p0.i64(ptr align 8 %0, ptr align 8 %4, i64 96, i1 false)
  br label %23

16:                                               ; preds = %5
  store i1 false, ptr %11, align 1
  %17 = load ptr, ptr %8, align 8
  %18 = load ptr, ptr %9, align 8
  call void @_ZN19ConcurrentHashTableI17SymbolTableConfigL8MEMFLAGS11EE20statistics_calculateI8SizeFuncEE15TableStatisticsP6ThreadRT_(ptr dead_on_unwind writable sret(%class.TableStatistics) align 8 %0, ptr noundef nonnull align 8 dereferenceable(88) %12, ptr noundef %17, ptr noundef nonnull align 1 dereferenceable(1) %18)
  %19 = load ptr, ptr %8, align 8
  call void @_ZN19ConcurrentHashTableI17SymbolTableConfigL8MEMFLAGS11EE18unlock_resize_lockEP6Thread(ptr noundef nonnull align 8 dereferenceable(88) %12, ptr noundef %19)
  store i1 true, ptr %11, align 1
  %20 = load i1, ptr %11, align 1
  br i1 %20, label %22, label %21

21:                                               ; preds = %16
  call void @_ZN15TableStatisticsD1Ev(ptr noundef nonnull align 8 dereferenceable(96) %0) #5
  br label %22

22:                                               ; preds = %21, %16
  br label %23

23:                                               ; preds = %22, %15
  ret void
}

; Function Attrs: mustprogress nounwind uwtable
define linkonce_odr hidden noundef ptr @_ZN6Thread7currentEv() #1 comdat align 2 {
  %1 = alloca ptr, align 8
  %2 = call noundef ptr @_ZN6Thread15current_or_nullEv()
  store ptr %2, ptr %1, align 8
  %3 = load ptr, ptr %1, align 8
  ret ptr %3
}

; Function Attrs: mustprogress nounwind uwtable
define hidden void @_ZN11SymbolTable20get_table_statisticsEv(ptr dead_on_unwind noalias writable sret(%class.TableStatistics) align 8 %0) #1 align 2 {
  %2 = alloca ptr, align 8
  %3 = alloca %struct.SizeFunc, align 1
  %4 = alloca %class.TableStatistics, align 8
  %5 = alloca %class.TableStatistics, align 8
  store ptr %0, ptr %2, align 8
  %6 = load atomic i8, ptr @_ZGVZN11SymbolTable20get_table_statisticsEvE2ts acquire, align 8
  %7 = icmp eq i8 %6, 0
  br i1 %7, label %8, label %13, !prof !13

8:                                                ; preds = %1
  %9 = call i32 @__cxa_guard_acquire(ptr @_ZGVZN11SymbolTable20get_table_statisticsEvE2ts) #5
  %10 = icmp ne i32 %9, 0
  br i1 %10, label %11, label %13

11:                                               ; preds = %8
  call void @_ZN15TableStatisticsC1Ev(ptr noundef nonnull align 8 dereferenceable(96) @_ZZN11SymbolTable20get_table_statisticsEvE2ts)
  %12 = call i32 @__cxa_atexit(ptr @_ZN15TableStatisticsD1Ev, ptr @_ZZN11SymbolTable20get_table_statisticsEvE2ts, ptr @__dso_handle) #5
  call void @__cxa_guard_release(ptr @_ZGVZN11SymbolTable20get_table_statisticsEvE2ts) #5
  br label %13

13:                                               ; preds = %11, %8, %1
  %14 = load ptr, ptr @_ZL12_local_table, align 8
  %15 = call noundef ptr @_ZN6Thread7currentEv()
  call void @llvm.memcpy.p0.p0.i64(ptr align 8 %5, ptr align 8 @_ZZN11SymbolTable20get_table_statisticsEvE2ts, i64 96, i1 false)
  call void @_ZN19ConcurrentHashTableI17SymbolTableConfigL8MEMFLAGS11EE14statistics_getI8SizeFuncEE15TableStatisticsP6ThreadRT_S5_(ptr dead_on_unwind writable sret(%class.TableStatistics) align 8 %4, ptr noundef nonnull align 8 dereferenceable(88) %14, ptr noundef %15, ptr noundef nonnull align 1 dereferenceable(1) %3, ptr noundef %5)
  call void @llvm.memcpy.p0.p0.i64(ptr align 8 @_ZZN11SymbolTable20get_table_statisticsEvE2ts, ptr align 8 %4, i64 96, i1 false)
  call void @_ZN15TableStatisticsD1Ev(ptr noundef nonnull align 8 dereferenceable(96) %4) #5
  call void @_ZN15TableStatisticsD1Ev(ptr noundef nonnull align 8 dereferenceable(96) %5) #5
  call void @llvm.memcpy.p0.p0.i64(ptr align 8 %0, ptr align 8 @_ZZN11SymbolTable20get_table_statisticsEvE2ts, i64 96, i1 false)
  ret void
}