; Function Attrs: mustprogress nounwind uwtable
define hidden void @_ZN11SymbolTable20get_table_statisticsEv(ptr dead_on_unwind noalias nocapture writable writeonly sret(%class.TableStatistics) align 8 %0) local_unnamed_addr #0 align 2 {
  %2 = alloca %struct.SizeFunc, align 1
  %3 = alloca %class.TableStatistics, align 8
  %4 = alloca %class.TableStatistics, align 8
  %5 = load atomic i8, ptr @_ZGVZN11SymbolTable20get_table_statisticsEvE2ts acquire, align 8
  %6 = icmp eq i8 %5, 0
  br i1 %6, label %7, label %11, !prof !22

7:                                                ; preds = %1
  %8 = tail call i32 @__cxa_guard_acquire(ptr nonnull @_ZGVZN11SymbolTable20get_table_statisticsEvE2ts) #18
  %.not = icmp eq i32 %8, 0
  br i1 %.not, label %11, label %9

9:                                                ; preds = %7
  tail call void @_ZN15TableStatisticsC1Ev(ptr noundef nonnull align 8 dereferenceable(96) @_ZZN11SymbolTable20get_table_statisticsEvE2ts) #18
  %10 = tail call i32 @__cxa_atexit(ptr nonnull @_ZN15TableStatisticsD1Ev, ptr nonnull @_ZZN11SymbolTable20get_table_statisticsEvE2ts, ptr nonnull @__dso_handle) #18
  tail call void @__cxa_guard_release(ptr nonnull @_ZGVZN11SymbolTable20get_table_statisticsEvE2ts) #18
  br label %11

11:                                               ; preds = %9, %7, %1
  %12 = load ptr, ptr @_ZL12_local_table, align 8
  %13 = tail call align 8 ptr @llvm.threadlocal.address.p0(ptr align 8 @_ZN6Thread12_thr_currentE)
  %14 = load ptr, ptr %13, align 8
  call void @llvm.memcpy.p0.p0.i64(ptr noundef nonnull align 8 dereferenceable(96) %4, ptr noundef nonnull align 8 dereferenceable(96) @_ZZN11SymbolTable20get_table_statisticsEvE2ts, i64 96, i1 false)
  %15 = getelementptr inbounds i8, ptr %12, i64 64
  %16 = load ptr, ptr %15, align 8, !noalias !23
  %17 = tail call noundef zeroext i1 @_ZN5Mutex8try_lockEv(ptr noundef nonnull align 8 dereferenceable(104) %16) #18, !noalias !23
  br i1 %17, label %18, label %23

18:                                               ; preds = %11
  %19 = getelementptr inbounds i8, ptr %12, i64 72
  %20 = load ptr, ptr %19, align 8, !noalias !23
  %.not.i.i = icmp eq ptr %20, null
  br i1 %.not.i.i, label %24, label %21

21:                                               ; preds = %18
  %22 = load ptr, ptr %15, align 8, !noalias !23
  tail call void @_ZN5Mutex6unlockEv(ptr noundef nonnull align 8 dereferenceable(104) %22) #18, !noalias !23
  br label %23

23:                                               ; preds = %21, %11
  call void @llvm.memcpy.p0.p0.i64(ptr noundef nonnull align 8 dereferenceable(96) %3, ptr noundef nonnull align 8 dereferenceable(96) %4, i64 96, i1 false)
  br label %_ZN19ConcurrentHashTableI17SymbolTableConfigL8MEMFLAGS11EE14statistics_getI8SizeFuncEE15TableStatisticsP6ThreadRT_S5_.exit

24:                                               ; preds = %18
  %25 = getelementptr inbounds i8, ptr %12, i64 80
  store ptr null, ptr %25, align 8, !noalias !23
  store ptr %14, ptr %19, align 8, !noalias !23
  call void @_ZN19ConcurrentHashTableI17SymbolTableConfigL8MEMFLAGS11EE20statistics_calculateI8SizeFuncEE15TableStatisticsP6ThreadRT_(ptr dead_on_unwind nonnull writable sret(%class.TableStatistics) align 8 %3, ptr noundef nonnull align 8 dereferenceable(88) %12, ptr noundef %14, ptr noundef nonnull align 1 dereferenceable(1) %2)
  call void @llvm.memset.p0.i64(ptr noundef nonnull align 8 dereferenceable(16) %19, i8 0, i64 16, i1 false), !noalias !23
  %26 = load ptr, ptr %15, align 8, !noalias !23
  call void @_ZN5Mutex6unlockEv(ptr noundef nonnull align 8 dereferenceable(104) %26) #18
  br label %_ZN19ConcurrentHashTableI17SymbolTableConfigL8MEMFLAGS11EE14statistics_getI8SizeFuncEE15TableStatisticsP6ThreadRT_S5_.exit

_ZN19ConcurrentHashTableI17SymbolTableConfigL8MEMFLAGS11EE14statistics_getI8SizeFuncEE15TableStatisticsP6ThreadRT_S5_.exit: ; preds = %23, %24
  call void @llvm.memcpy.p0.p0.i64(ptr noundef nonnull align 8 dereferenceable(96) @_ZZN11SymbolTable20get_table_statisticsEvE2ts, ptr noundef nonnull align 8 dereferenceable(96) %3, i64 96, i1 false)
  call void @_ZN15TableStatisticsD1Ev(ptr noundef nonnull align 8 dereferenceable(96) %3) #18
  call void @_ZN15TableStatisticsD1Ev(ptr noundef nonnull align 8 dereferenceable(96) %4) #18
  call void @llvm.memcpy.p0.p0.i64(ptr noundef nonnull align 8 dereferenceable(96) %0, ptr noundef nonnull align 8 dereferenceable(96) @_ZZN11SymbolTable20get_table_statisticsEvE2ts, i64 96, i1 false)
  ret void
}